target datalayout = "e-m:e-p270:32:32-p271:32:32-p272:64:64-i64:64-i128:128-f80:128-n8:16:32:64-S128"
target triple = "x86_64-pc-linux-gnu"

%struct._psqlSettings = type { ptr, i32, ptr, i8, ptr, ptr, %struct.printQueryOpt, ptr, ptr, ptr, i8, i8, i32, i32, ptr, ptr, i8, [4 x ptr], i8, i32, ptr, i8, i32, ptr, ptr, i64, i64, i8, ptr, ptr, ptr, i8, i8, i8, i8, i8, i8, i8, i32, i32, i32, i32, i32, i32, i32, i32, ptr, ptr, ptr, i32, i8, i32 }
%struct.printQueryOpt = type { %struct.printTableOpt, ptr, ptr, ptr, i8, ptr, i32 }
%struct.printTableOpt = type { i32, i16, i32, i32, i16, i16, i32, i8, i8, i8, i8, i64, ptr, %struct.separator, %struct.separator, [2 x i8], i8, ptr, i32, i32, i32, i32, i32, i32 }
%struct.separator = type { ptr, i8 }

@pset = external global %struct._psqlSettings, align 8
@.str.165 = private unnamed_addr constant [3 x i8] c"%s\00", align 1
@.str.166 = private unnamed_addr constant [14 x i8] c"out of memory\00", align 1
@.str.246 = private unnamed_addr constant [28 x i8] c"There is no previous error.\00", align 1

; Function Attrs: nounwind uwtable
define internal i32 @exec_command_errverbose(ptr noundef %0, i1 noundef zeroext %1) #0 {
  %3 = alloca ptr, align 8
  %4 = alloca i8, align 1
  %5 = alloca ptr, align 8
  store ptr %0, ptr %3, align 8
  %6 = zext i1 %1 to i8
  store i8 %6, ptr %4, align 1
  %7 = load i8, ptr %4, align 1, !range !4, !noundef !5
  %8 = trunc i8 %7 to i1
  br i1 %8, label %9, label %26

9:                                                ; preds = %2
  %10 = load ptr, ptr getelementptr inbounds nuw (%struct._psqlSettings, ptr @pset, i32 0, i32 5), align 8
  %11 = icmp ne ptr %10, null
  br i1 %11, label %12, label %23

12:                                               ; preds = %9
  call void @llvm.lifetime.start.p0(i64 8, ptr %5) #10
  %13 = load ptr, ptr getelementptr inbounds nuw (%struct._psqlSettings, ptr @pset, i32 0, i32 5), align 8
  %14 = call ptr @PQresultVerboseErrorMessage(ptr noundef %13, i32 noundef 2, i32 noundef 2)
  store ptr %14, ptr %5, align 8
  %15 = load ptr, ptr %5, align 8
  %16 = icmp ne ptr %15, null
  br i1 %16, label %17, label %20

17:                                               ; preds = %12
  %18 = load ptr, ptr %5, align 8
  call void (i32, i32, ptr, ...) @pg_log_generic(i32 noundef 4, i32 noundef 0, ptr noundef @.str.165, ptr noundef %18)
  %19 = load ptr, ptr %5, align 8
  call void @PQfreemem(ptr noundef %19)
  br label %22

20:                                               ; preds = %12
  %21 = call i32 @puts(ptr noundef @.str.166)
  br label %22

22:                                               ; preds = %20, %17
  call void @llvm.lifetime.end.p0(i64 8, ptr %5) #10
  br label %25

23:                                               ; preds = %9
  %24 = call i32 @puts(ptr noundef @.str.246)
  br label %25

25:                                               ; preds = %23, %22
  br label %26

26:                                               ; preds = %25, %2
  ret i32 2
}