; Function Attrs: nounwind uwtable
define internal fastcc void @exec_command_errverbose(i1 noundef zeroext %0) unnamed_addr #0 {
  br i1 %0, label %2, label %11

2:                                                ; preds = %1
  %3 = load ptr, ptr getelementptr inbounds nuw (i8, ptr @pset, i64 40), align 8
  %.not = icmp eq ptr %3, null
  br i1 %.not, label %9, label %4

4:                                                ; preds = %2
  %5 = tail call ptr @PQresultVerboseErrorMessage(ptr noundef nonnull %3, i32 noundef 2, i32 noundef 2) #16
  %.not4 = icmp eq ptr %5, null
  br i1 %.not4, label %7, label %6

6:                                                ; preds = %4
  tail call void (i32, i32, ptr, ...) @pg_log_generic(i32 noundef 4, i32 noundef 0, ptr noundef nonnull @.str.165, ptr noundef nonnull %5) #16
  tail call void @PQfreemem(ptr noundef nonnull %5) #16
  br label %11

7:                                                ; preds = %4
  %8 = tail call i32 @puts(ptr noundef nonnull dereferenceable(1) @.str.166)
  br label %11

9:                                                ; preds = %2
  %10 = tail call i32 @puts(ptr noundef nonnull dereferenceable(1) @.str.246)
  br label %11

11:                                               ; preds = %6, %7, %9, %1
  ret void
}